; Function Attrs: mustprogress uwtable
define void @_ZNK5arrow5Array5SliceEll(ptr dead_on_unwind noalias writable sret(%"class.std::shared_ptr.26") align 8 %0, ptr noundef nonnull readonly align 8 captures(none) dereferenceable(32) %1, i64 noundef %2, i64 noundef %3) local_unnamed_addr #1 align 2 personality ptr @__gxx_personality_v0 {
  %5 = alloca %"class.std::shared_ptr", align 8
  call void @llvm.lifetime.start.p0(i64 16, ptr nonnull %5) #20
  %6 = getelementptr inbounds nuw i8, ptr %1, i64 8
  %7 = load ptr, ptr %6, align 8, !tbaa !32
  call void @_ZNK5arrow9ArrayData5SliceEll(ptr dead_on_unwind nonnull writable sret(%"class.std::shared_ptr") align 8 %5, ptr noundef nonnull align 8 dereferenceable(120) %7, i64 noundef %2, i64 noundef %3)
  invoke void @_ZN5arrow9MakeArrayERKSt10shared_ptrINS_9ArrayDataEE(ptr dead_on_unwind writable sret(%"class.std::shared_ptr.26") align 8 %0, ptr noundef nonnull align 8 dereferenceable(16) %5)
          to label %8 unwind label %32

8:                                                ; preds = %4
  %9 = getelementptr inbounds nuw i8, ptr %5, i64 8
  %10 = load ptr, ptr %9, align 8, !tbaa !45
  %.not.i.i = icmp eq ptr %10, null
  br i1 %.not.i.i, label %_ZNSt12__shared_ptrIN5arrow9ArrayDataELN9__gnu_cxx12_Lock_policyE2EED2Ev.exit, label %11

11:                                               ; preds = %8
  %12 = getelementptr inbounds nuw i8, ptr %10, i64 8
  %13 = load atomic i64, ptr %12 acquire, align 8
  %14 = icmp eq i64 %13, 4294967297
  %15 = trunc i64 %13 to i32
  br i1 %14, label %16, label %24

16:                                               ; preds = %11
  store i32 0, ptr %12, align 8, !tbaa !46
  %17 = getelementptr inbounds nuw i8, ptr %10, i64 12
  store i32 0, ptr %17, align 4, !tbaa !48
  %18 = load ptr, ptr %10, align 8, !tbaa !49
  %19 = getelementptr inbounds nuw i8, ptr %18, i64 16
  %20 = load ptr, ptr %19, align 8
  call void %20(ptr noundef nonnull align 8 dereferenceable(16) %10) #20
  %21 = load ptr, ptr %10, align 8, !tbaa !49
  %22 = getelementptr inbounds nuw i8, ptr %21, i64 24
  %23 = load ptr, ptr %22, align 8
  call void %23(ptr noundef nonnull align 8 dereferenceable(16) %10) #20
  br label %_ZNSt12__shared_ptrIN5arrow9ArrayDataELN9__gnu_cxx12_Lock_policyE2EED2Ev.exit

24:                                               ; preds = %11
  %25 = load i8, ptr @__libc_single_threaded, align 1, !tbaa !51
  %.not.i.i.i = icmp eq i8 %25, 0
  br i1 %.not.i.i.i, label %28, label %26

26:                                               ; preds = %24
  %27 = add nsw i32 %15, -1
  store i32 %27, ptr %12, align 4, !tbaa !52
  br label %_ZN9__gnu_cxx27__exchange_and_add_dispatchEPii.exit.i.i.i

28:                                               ; preds = %24
  %29 = atomicrmw volatile add ptr %12, i32 -1 acq_rel, align 4
  br label %_ZN9__gnu_cxx27__exchange_and_add_dispatchEPii.exit.i.i.i

_ZN9__gnu_cxx27__exchange_and_add_dispatchEPii.exit.i.i.i: ; preds = %28, %26
  %.0.i.i.i.i = phi i32 [ %15, %26 ], [ %29, %28 ]
  %30 = icmp eq i32 %.0.i.i.i.i, 1
  br i1 %30, label %31, label %_ZNSt12__shared_ptrIN5arrow9ArrayDataELN9__gnu_cxx12_Lock_policyE2EED2Ev.exit, !prof !53

31:                                               ; preds = %_ZN9__gnu_cxx27__exchange_and_add_dispatchEPii.exit.i.i.i
  call void @_ZNSt16_Sp_counted_baseILN9__gnu_cxx12_Lock_policyE2EE24_M_release_last_use_coldEv(ptr noundef nonnull align 8 dereferenceable(16) %10) #20
  br label %_ZNSt12__shared_ptrIN5arrow9ArrayDataELN9__gnu_cxx12_Lock_policyE2EED2Ev.exit

_ZNSt12__shared_ptrIN5arrow9ArrayDataELN9__gnu_cxx12_Lock_policyE2EED2Ev.exit: ; preds = %8, %16, %_ZN9__gnu_cxx27__exchange_and_add_dispatchEPii.exit.i.i.i, %31
  call void @llvm.lifetime.end.p0(i64 16, ptr nonnull %5) #20
  ret void

32:                                               ; preds = %4
  %33 = landingpad { ptr, i32 }
          cleanup
  call void @_ZNSt12__shared_ptrIN5arrow9ArrayDataELN9__gnu_cxx12_Lock_policyE2EED2Ev(ptr noundef nonnull align 8 dereferenceable(16) %5) #20
  call void @llvm.lifetime.end.p0(i64 16, ptr nonnull %5) #20
  resume { ptr, i32 } %33
}